; Function Attrs: mustprogress nounwind uwtable
define void @_ZN7glslang17TParseContextBase7ppErrorERKNS_10TSourceLocEPKcS5_S5_z(ptr noundef nonnull align 8 dereferenceable(1280) %0, ptr noundef nonnull align 8 dereferenceable(24) %1, ptr noundef %2, ptr noundef %3, ptr noundef %4, ...) unnamed_addr #0 align 2 {
  %6 = alloca [1 x %struct.__va_list_tag], align 16
  call void @llvm.va_start.p0(ptr nonnull %6)
  %7 = load ptr, ptr %0, align 8
  %8 = getelementptr inbounds nuw i8, ptr %7, i64 592
  %9 = load ptr, ptr %8, align 8
  call void %9(ptr noundef nonnull align 8 dereferenceable(1280) %0, ptr noundef nonnull align 8 dereferenceable(24) %1, ptr noundef %2, ptr noundef %3, ptr noundef %4, i32 noundef 2, ptr noundef nonnull %6) #16
  call void @llvm.va_end.p0(ptr nonnull %6)
  %10 = getelementptr inbounds nuw i8, ptr %0, i64 208
  %11 = load i32, ptr %10, align 8
  %12 = and i32 %11, 128
  %13 = icmp eq i32 %12, 0
  br i1 %13, label %14, label %21

14:                                               ; preds = %5
  %15 = getelementptr inbounds nuw i8, ptr %0, i64 216
  %16 = load ptr, ptr %15, align 8
  %17 = getelementptr inbounds nuw i8, ptr %16, i64 89
  store i8 1, ptr %17, align 1
  %18 = getelementptr inbounds nuw i8, ptr %16, i64 8
  %19 = load i32, ptr %18, align 8
  %20 = getelementptr inbounds nuw i8, ptr %16, i64 32
  store i32 %19, ptr %20, align 8
  br label %21

21:                                               ; preds = %14, %5
  ret void
}